; Function Attrs: mustprogress nounwind uwtable
define hidden void @_ZN8ValueMap11kill_memoryEv(ptr nocapture noundef nonnull align 8 dereferenceable(52) %0) local_unnamed_addr #0 align 2 {
  %2 = getelementptr inbounds i8, ptr %0, i64 8
  %3 = load i32, ptr %2, align 8
  %4 = icmp sgt i32 %3, 0
  br i1 %4, label %.lr.ph28, label %._crit_edge

.lr.ph28:                                         ; preds = %1
  %5 = getelementptr inbounds i8, ptr %0, i64 16
  %6 = getelementptr inbounds i8, ptr %0, i64 32
  %7 = getelementptr inbounds i8, ptr %0, i64 48
  %8 = zext nneg i32 %3 to i64
  br label %10

.loopexit:                                        ; preds = %54, %10
  %9 = icmp sgt i64 %indvars.iv, 1
  br i1 %9, label %10, label %._crit_edge, !llvm.loop !13

10:                                               ; preds = %.lr.ph28, %.loopexit
  %indvars.iv = phi i64 [ %8, %.lr.ph28 ], [ %indvars.iv.next, %.loopexit ]
  %indvars.iv.next = add nsw i64 %indvars.iv, -1
  %11 = load ptr, ptr %5, align 8
  %12 = getelementptr inbounds ptr, ptr %11, i64 %indvars.iv.next
  %.01922 = load ptr, ptr %12, align 8
  %.not23 = icmp eq ptr %.01922, null
  br i1 %.not23, label %.loopexit, label %.lr.ph

.lr.ph:                                           ; preds = %10, %54
  %.01925 = phi ptr [ %.019, %54 ], [ %.01922, %10 ]
  %.01824 = phi ptr [ %.1, %54 ], [ null, %10 ]
  %13 = getelementptr inbounds i8, ptr %.01925, i64 8
  %14 = load ptr, ptr %13, align 8
  %15 = load ptr, ptr %14, align 8
  %16 = getelementptr inbounds i8, ptr %15, i64 48
  %17 = load ptr, ptr %16, align 8
  %18 = tail call noundef ptr %17(ptr noundef nonnull align 8 dereferenceable(96) %14) #6
  %.not20 = icmp eq ptr %18, null
  br i1 %.not20, label %19, label %.critedge

19:                                               ; preds = %.lr.ph
  %20 = load ptr, ptr %14, align 8
  %21 = getelementptr inbounds i8, ptr %20, i64 88
  %22 = load ptr, ptr %21, align 8
  %23 = tail call noundef ptr %22(ptr noundef nonnull align 8 dereferenceable(96) %14) #6
  %.not21 = icmp eq ptr %23, null
  br i1 %.not21, label %54, label %.critedge

.critedge:                                        ; preds = %.lr.ph, %19
  %24 = load i32, ptr %0, align 8
  %25 = icmp sgt i32 %24, 0
  br i1 %25, label %26, label %_ZN8ValueMap10kill_valueEP11Instruction.exit

26:                                               ; preds = %.critedge
  %27 = getelementptr inbounds i8, ptr %14, i64 8
  %28 = load i32, ptr %27, align 8
  %29 = sext i32 %28 to i64
  %30 = and i64 %29, 63
  %31 = shl nuw i64 1, %30
  %32 = load ptr, ptr %6, align 8
  %33 = lshr i64 %29, 6
  %34 = getelementptr inbounds i64, ptr %32, i64 %33
  %35 = load i64, ptr %34, align 8
  %36 = or i64 %31, %35
  store i64 %36, ptr %34, align 8
  br label %_ZN8ValueMap10kill_valueEP11Instruction.exit

_ZN8ValueMap10kill_valueEP11Instruction.exit:     ; preds = %.critedge, %26
  %37 = icmp eq ptr %.01824, null
  br i1 %37, label %38, label %43

38:                                               ; preds = %_ZN8ValueMap10kill_valueEP11Instruction.exit
  %39 = getelementptr inbounds i8, ptr %.01925, i64 24
  %40 = load ptr, ptr %39, align 8
  %41 = load ptr, ptr %5, align 8
  %42 = getelementptr inbounds ptr, ptr %41, i64 %indvars.iv.next
  store ptr %40, ptr %42, align 8
  br label %.sink.split

43:                                               ; preds = %_ZN8ValueMap10kill_valueEP11Instruction.exit
  %44 = getelementptr inbounds i8, ptr %.01824, i64 16
  %45 = load i32, ptr %44, align 8
  %46 = load i32, ptr %0, align 8
  %47 = icmp eq i32 %45, %46
  br i1 %47, label %48, label %54

48:                                               ; preds = %43
  %49 = getelementptr inbounds i8, ptr %.01925, i64 24
  %50 = load ptr, ptr %49, align 8
  %51 = getelementptr inbounds i8, ptr %.01824, i64 24
  store ptr %50, ptr %51, align 8
  br label %.sink.split

.sink.split:                                      ; preds = %38, %48
  %.1.ph = phi ptr [ %.01824, %48 ], [ null, %38 ]
  %52 = load i32, ptr %7, align 8
  %53 = add nsw i32 %52, -1
  store i32 %53, ptr %7, align 8
  br label %54

54:                                               ; preds = %.sink.split, %19, %43
  %.1 = phi ptr [ %.01925, %43 ], [ %.01925, %19 ], [ %.1.ph, %.sink.split ]
  %55 = getelementptr inbounds i8, ptr %.01925, i64 24
  %.019 = load ptr, ptr %55, align 8
  %.not = icmp eq ptr %.019, null
  br i1 %.not, label %.loopexit, label %.lr.ph, !llvm.loop !14

._crit_edge:                                      ; preds = %.loopexit, %1
  ret void
}